target datalayout = "e-m:e-p270:32:32-p271:32:32-p272:64:64-i64:64-i128:128-f80:128-n8:16:32:64-S128"
target triple = "x86_64-pc-linux-gnu"

%"class.std::unique_ptr.1612" = type { %"struct.std::__uniq_ptr_data.1613" }
%"struct.std::__uniq_ptr_data.1613" = type { %"class.std::__uniq_ptr_impl.1614" }
%"class.std::__uniq_ptr_impl.1614" = type { %"class.std::tuple.1615" }
%"class.std::tuple.1615" = type { %"struct.std::_Tuple_impl.1616" }
%"struct.std::_Tuple_impl.1616" = type { %"struct.std::_Head_base.1619" }
%"struct.std::_Head_base.1619" = type { ptr }
%"class.gmx::MdrunnerBuilder" = type { %"class.std::unique_ptr.1612" }

@_ZN3gmx8Mdrunner21BuilderImplementationD1Ev = unnamed_addr alias void (ptr), ptr @_ZN3gmx8Mdrunner21BuilderImplementationD2Ev

; Function Attrs: mustprogress nounwind uwtable
define linkonce_odr noundef nonnull align 8 dereferenceable(8) ptr @_ZNSt10_Head_baseILm0EPN3gmx8Mdrunner21BuilderImplementationELb0EE7_M_headERS4_(ptr noundef nonnull align 8 dereferenceable(8) %0) #2 comdat align 2 {
  %2 = alloca ptr, align 8
  store ptr %0, ptr %2, align 8, !tbaa !3289
  %3 = load ptr, ptr %2, align 8, !tbaa !3289
  %4 = getelementptr inbounds nuw %"struct.std::_Head_base.1619", ptr %3, i32 0, i32 0
  ret ptr %4
}

; Function Attrs: mustprogress nounwind uwtable
define linkonce_odr noundef nonnull align 1 dereferenceable(1) ptr @_ZNSt10_Head_baseILm1ESt14default_deleteIN3gmx8Mdrunner21BuilderImplementationEELb1EE7_M_headERS5_(ptr noundef nonnull align 1 dereferenceable(1) %0) #2 comdat align 2 {
  %2 = alloca ptr, align 8
  store ptr %0, ptr %2, align 8, !tbaa !3293
  %3 = load ptr, ptr %2, align 8, !tbaa !3293
  ret ptr %3
}

; Function Attrs: mustprogress nounwind uwtable
define linkonce_odr noundef nonnull align 8 dereferenceable(8) ptr @_ZNSt11_Tuple_implILm0EJPN3gmx8Mdrunner21BuilderImplementationESt14default_deleteIS2_EEE7_M_headERS6_(ptr noundef nonnull align 8 dereferenceable(8) %0) #2 comdat align 2 {
  %2 = alloca ptr, align 8
  store ptr %0, ptr %2, align 8, !tbaa !3285
  %3 = load ptr, ptr %2, align 8, !tbaa !3285
  %4 = call noundef nonnull align 8 dereferenceable(8) ptr @_ZNSt10_Head_baseILm0EPN3gmx8Mdrunner21BuilderImplementationELb0EE7_M_headERS4_(ptr noundef nonnull align 8 dereferenceable(8) %3) #5
  ret ptr %4
}

; Function Attrs: mustprogress nounwind uwtable
define linkonce_odr noundef nonnull align 1 dereferenceable(1) ptr @_ZNSt11_Tuple_implILm1EJSt14default_deleteIN3gmx8Mdrunner21BuilderImplementationEEEE7_M_headERS5_(ptr noundef nonnull align 1 dereferenceable(1) %0) #2 comdat align 2 {
  %2 = alloca ptr, align 8
  store ptr %0, ptr %2, align 8, !tbaa !3287
  %3 = load ptr, ptr %2, align 8, !tbaa !3287
  %4 = call noundef nonnull align 1 dereferenceable(1) ptr @_ZNSt10_Head_baseILm1ESt14default_deleteIN3gmx8Mdrunner21BuilderImplementationEELb1EE7_M_headERS5_(ptr noundef nonnull align 1 dereferenceable(1) %3) #5
  ret ptr %4
}

; Function Attrs: mustprogress nounwind uwtable
define linkonce_odr noundef nonnull align 8 dereferenceable(8) ptr @_ZSt12__get_helperILm0EPN3gmx8Mdrunner21BuilderImplementationEJSt14default_deleteIS2_EEERT0_RSt11_Tuple_implIXT_EJS6_DpT1_EE(ptr noundef nonnull align 8 dereferenceable(8) %0) #2 comdat {
  %2 = alloca ptr, align 8
  store ptr %0, ptr %2, align 8, !tbaa !3285
  %3 = load ptr, ptr %2, align 8, !tbaa !3285
  %4 = call noundef nonnull align 8 dereferenceable(8) ptr @_ZNSt11_Tuple_implILm0EJPN3gmx8Mdrunner21BuilderImplementationESt14default_deleteIS2_EEE7_M_headERS6_(ptr noundef nonnull align 8 dereferenceable(8) %3) #5
  ret ptr %4
}

; Function Attrs: mustprogress nounwind uwtable
define linkonce_odr noundef nonnull align 1 dereferenceable(1) ptr @_ZSt12__get_helperILm1ESt14default_deleteIN3gmx8Mdrunner21BuilderImplementationEEJEERT0_RSt11_Tuple_implIXT_EJS5_DpT1_EE(ptr noundef nonnull align 1 dereferenceable(1) %0) #2 comdat {
  %2 = alloca ptr, align 8
  store ptr %0, ptr %2, align 8, !tbaa !3287
  %3 = load ptr, ptr %2, align 8, !tbaa !3287
  %4 = call noundef nonnull align 1 dereferenceable(1) ptr @_ZNSt11_Tuple_implILm1EJSt14default_deleteIN3gmx8Mdrunner21BuilderImplementationEEEE7_M_headERS5_(ptr noundef nonnull align 1 dereferenceable(1) %3) #5
  ret ptr %4
}

; Function Attrs: mustprogress nounwind uwtable
define linkonce_odr noundef nonnull align 8 dereferenceable(8) ptr @_ZSt3getILm0EJPN3gmx8Mdrunner21BuilderImplementationESt14default_deleteIS2_EEERNSt13tuple_elementIXT_ESt5tupleIJDpT0_EEE4typeERSA_(ptr noundef nonnull align 8 dereferenceable(8) %0) #2 comdat {
  %2 = alloca ptr, align 8
  store ptr %0, ptr %2, align 8, !tbaa !3283
  %3 = load ptr, ptr %2, align 8, !tbaa !3283
  %4 = call noundef nonnull align 8 dereferenceable(8) ptr @_ZSt12__get_helperILm0EPN3gmx8Mdrunner21BuilderImplementationEJSt14default_deleteIS2_EEERT0_RSt11_Tuple_implIXT_EJS6_DpT1_EE(ptr noundef nonnull align 8 dereferenceable(8) %3) #5
  ret ptr %4
}

; Function Attrs: mustprogress nounwind uwtable
define linkonce_odr noundef nonnull align 1 dereferenceable(1) ptr @_ZSt3getILm1EJPN3gmx8Mdrunner21BuilderImplementationESt14default_deleteIS2_EEERNSt13tuple_elementIXT_ESt5tupleIJDpT0_EEE4typeERSA_(ptr noundef nonnull align 8 dereferenceable(8) %0) #2 comdat {
  %2 = alloca ptr, align 8
  store ptr %0, ptr %2, align 8, !tbaa !3283
  %3 = load ptr, ptr %2, align 8, !tbaa !3283
  %4 = call noundef nonnull align 1 dereferenceable(1) ptr @_ZSt12__get_helperILm1ESt14default_deleteIN3gmx8Mdrunner21BuilderImplementationEEJEERT0_RSt11_Tuple_implIXT_EJS5_DpT1_EE(ptr noundef nonnull align 1 dereferenceable(1) %3) #5
  ret ptr %4
}

; Function Attrs: mustprogress nounwind uwtable
define linkonce_odr void @_ZNKSt14default_deleteIN3gmx8Mdrunner21BuilderImplementationEEclEPS2_(ptr noundef nonnull align 1 dereferenceable(1) %0, ptr noundef %1) #2 comdat align 2 {
  %3 = alloca ptr, align 8
  %4 = alloca ptr, align 8
  store ptr %0, ptr %3, align 8, !tbaa !3297
  store ptr %1, ptr %4, align 8, !tbaa !3229
  %5 = load ptr, ptr %4, align 8, !tbaa !3229
  %6 = icmp eq ptr %5, null
  br i1 %6, label %8, label %7

7:                                                ; preds = %2
  call void @_ZN3gmx8Mdrunner21BuilderImplementationD1Ev(ptr noundef nonnull align 8 dereferenceable(376) %5) #5
  call void @_ZdlPvm(ptr noundef %5, i64 noundef 376) #27
  br label %8

8:                                                ; preds = %7, %2
  ret void
}

; Function Attrs: mustprogress nounwind uwtable
define linkonce_odr noundef nonnull align 8 dereferenceable(8) ptr @_ZNSt15__uniq_ptr_implIN3gmx8Mdrunner21BuilderImplementationESt14default_deleteIS2_EE6_M_ptrEv(ptr noundef nonnull align 8 dereferenceable(8) %0) #2 comdat align 2 {
  %2 = alloca ptr, align 8
  store ptr %0, ptr %2, align 8, !tbaa !3281
  %3 = load ptr, ptr %2, align 8
  %4 = getelementptr inbounds nuw %"class.std::__uniq_ptr_impl.1614", ptr %3, i32 0, i32 0
  %5 = call noundef nonnull align 8 dereferenceable(8) ptr @_ZSt3getILm0EJPN3gmx8Mdrunner21BuilderImplementationESt14default_deleteIS2_EEERNSt13tuple_elementIXT_ESt5tupleIJDpT0_EEE4typeERSA_(ptr noundef nonnull align 8 dereferenceable(8) %4) #5
  ret ptr %5
}

; Function Attrs: mustprogress nounwind uwtable
define linkonce_odr noundef nonnull align 1 dereferenceable(1) ptr @_ZNSt15__uniq_ptr_implIN3gmx8Mdrunner21BuilderImplementationESt14default_deleteIS2_EE10_M_deleterEv(ptr noundef nonnull align 8 dereferenceable(8) %0) #2 comdat align 2 {
  %2 = alloca ptr, align 8
  store ptr %0, ptr %2, align 8, !tbaa !3281
  %3 = load ptr, ptr %2, align 8
  %4 = getelementptr inbounds nuw %"class.std::__uniq_ptr_impl.1614", ptr %3, i32 0, i32 0
  %5 = call noundef nonnull align 1 dereferenceable(1) ptr @_ZSt3getILm1EJPN3gmx8Mdrunner21BuilderImplementationESt14default_deleteIS2_EEERNSt13tuple_elementIXT_ESt5tupleIJDpT0_EEE4typeERSA_(ptr noundef nonnull align 8 dereferenceable(8) %4) #5
  ret ptr %5
}

; Function Attrs: mustprogress nounwind uwtable
define linkonce_odr void @_ZNSt15__uniq_ptr_implIN3gmx8Mdrunner21BuilderImplementationESt14default_deleteIS2_EE5resetEPS2_(ptr noundef nonnull align 8 dereferenceable(8) %0, ptr noundef %1) #2 comdat align 2 {
  %3 = alloca ptr, align 8
  %4 = alloca ptr, align 8
  %5 = alloca ptr, align 8
  store ptr %0, ptr %3, align 8, !tbaa !3281
  store ptr %1, ptr %4, align 8, !tbaa !3229
  %6 = load ptr, ptr %3, align 8
  call void @llvm.lifetime.start.p0(i64 8, ptr %5) #5
  %7 = call noundef nonnull align 8 dereferenceable(8) ptr @_ZNSt15__uniq_ptr_implIN3gmx8Mdrunner21BuilderImplementationESt14default_deleteIS2_EE6_M_ptrEv(ptr noundef nonnull align 8 dereferenceable(8) %6) #5
  %8 = load ptr, ptr %7, align 8, !tbaa !3229
  store ptr %8, ptr %5, align 8, !tbaa !3229
  %9 = load ptr, ptr %4, align 8, !tbaa !3229
  %10 = call noundef nonnull align 8 dereferenceable(8) ptr @_ZNSt15__uniq_ptr_implIN3gmx8Mdrunner21BuilderImplementationESt14default_deleteIS2_EE6_M_ptrEv(ptr noundef nonnull align 8 dereferenceable(8) %6) #5
  store ptr %9, ptr %10, align 8, !tbaa !3229
  %11 = load ptr, ptr %5, align 8, !tbaa !3229
  %12 = icmp ne ptr %11, null
  br i1 %12, label %13, label %16

13:                                               ; preds = %2
  %14 = call noundef nonnull align 1 dereferenceable(1) ptr @_ZNSt15__uniq_ptr_implIN3gmx8Mdrunner21BuilderImplementationESt14default_deleteIS2_EE10_M_deleterEv(ptr noundef nonnull align 8 dereferenceable(8) %6) #5
  %15 = load ptr, ptr %5, align 8, !tbaa !3229
  call void @_ZNKSt14default_deleteIN3gmx8Mdrunner21BuilderImplementationEEclEPS2_(ptr noundef nonnull align 1 dereferenceable(1) %14, ptr noundef %15)
  br label %16

16:                                               ; preds = %13, %2
  call void @llvm.lifetime.end.p0(i64 8, ptr %5) #5
  ret void
}

; Function Attrs: mustprogress nounwind uwtable
define linkonce_odr noundef ptr @_ZNSt15__uniq_ptr_implIN3gmx8Mdrunner21BuilderImplementationESt14default_deleteIS2_EE7releaseEv(ptr noundef nonnull align 8 dereferenceable(8) %0) #2 comdat align 2 {
  %2 = alloca ptr, align 8
  %3 = alloca ptr, align 8
  store ptr %0, ptr %2, align 8, !tbaa !3281
  %4 = load ptr, ptr %2, align 8
  call void @llvm.lifetime.start.p0(i64 8, ptr %3) #5
  %5 = call noundef nonnull align 8 dereferenceable(8) ptr @_ZNSt15__uniq_ptr_implIN3gmx8Mdrunner21BuilderImplementationESt14default_deleteIS2_EE6_M_ptrEv(ptr noundef nonnull align 8 dereferenceable(8) %4) #5
  %6 = load ptr, ptr %5, align 8, !tbaa !3229
  store ptr %6, ptr %3, align 8, !tbaa !3229
  %7 = call noundef nonnull align 8 dereferenceable(8) ptr @_ZNSt15__uniq_ptr_implIN3gmx8Mdrunner21BuilderImplementationESt14default_deleteIS2_EE6_M_ptrEv(ptr noundef nonnull align 8 dereferenceable(8) %4) #5
  store ptr null, ptr %7, align 8, !tbaa !3229
  %8 = load ptr, ptr %3, align 8, !tbaa !3229
  call void @llvm.lifetime.end.p0(i64 8, ptr %3) #5
  ret ptr %8
}

; Function Attrs: mustprogress nounwind uwtable
define linkonce_odr noundef nonnull align 8 dereferenceable(8) ptr @_ZNSt15__uniq_ptr_implIN3gmx8Mdrunner21BuilderImplementationESt14default_deleteIS2_EEaSEOS5_(ptr noundef nonnull align 8 dereferenceable(8) %0, ptr noundef nonnull align 8 dereferenceable(8) %1) #2 comdat align 2 {
  %3 = alloca ptr, align 8
  %4 = alloca ptr, align 8
  store ptr %0, ptr %3, align 8, !tbaa !3281
  store ptr %1, ptr %4, align 8, !tbaa !3281
  %5 = load ptr, ptr %3, align 8
  %6 = load ptr, ptr %4, align 8, !tbaa !3281
  %7 = call noundef ptr @_ZNSt15__uniq_ptr_implIN3gmx8Mdrunner21BuilderImplementationESt14default_deleteIS2_EE7releaseEv(ptr noundef nonnull align 8 dereferenceable(8) %6) #5
  call void @_ZNSt15__uniq_ptr_implIN3gmx8Mdrunner21BuilderImplementationESt14default_deleteIS2_EE5resetEPS2_(ptr noundef nonnull align 8 dereferenceable(8) %5, ptr noundef %7) #5
  %8 = load ptr, ptr %4, align 8, !tbaa !3281
  %9 = call noundef nonnull align 1 dereferenceable(1) ptr @_ZNSt15__uniq_ptr_implIN3gmx8Mdrunner21BuilderImplementationESt14default_deleteIS2_EE10_M_deleterEv(ptr noundef nonnull align 8 dereferenceable(8) %8) #5
  %10 = call noundef nonnull align 1 dereferenceable(1) ptr @_ZNSt15__uniq_ptr_implIN3gmx8Mdrunner21BuilderImplementationESt14default_deleteIS2_EE10_M_deleterEv(ptr noundef nonnull align 8 dereferenceable(8) %5) #5
  ret ptr %5
}

; Function Attrs: mustprogress nounwind uwtable
define linkonce_odr noundef nonnull align 8 dereferenceable(8) ptr @_ZNSt15__uniq_ptr_dataIN3gmx8Mdrunner21BuilderImplementationESt14default_deleteIS2_ELb1ELb1EEaSEOS5_(ptr noundef nonnull align 8 dereferenceable(8) %0, ptr noundef nonnull align 8 dereferenceable(8) %1) #2 comdat align 2 {
  %3 = alloca ptr, align 8
  %4 = alloca ptr, align 8
  store ptr %0, ptr %3, align 8, !tbaa !3279
  store ptr %1, ptr %4, align 8, !tbaa !3279
  %5 = load ptr, ptr %3, align 8
  %6 = load ptr, ptr %4, align 8, !tbaa !3279
  %7 = call noundef nonnull align 8 dereferenceable(8) ptr @_ZNSt15__uniq_ptr_implIN3gmx8Mdrunner21BuilderImplementationESt14default_deleteIS2_EEaSEOS5_(ptr noundef nonnull align 8 dereferenceable(8) %5, ptr noundef nonnull align 8 dereferenceable(8) %6) #5
  ret ptr %5
}

; Function Attrs: mustprogress nounwind uwtable
define linkonce_odr noundef nonnull align 8 dereferenceable(8) ptr @_ZNSt10unique_ptrIN3gmx8Mdrunner21BuilderImplementationESt14default_deleteIS2_EEaSEOS5_(ptr noundef nonnull align 8 dereferenceable(8) %0, ptr noundef nonnull align 8 dereferenceable(8) %1) #2 comdat align 2 {
  %3 = alloca ptr, align 8
  %4 = alloca ptr, align 8
  store ptr %0, ptr %3, align 8, !tbaa !3277
  store ptr %1, ptr %4, align 8, !tbaa !3277
  %5 = load ptr, ptr %3, align 8
  %6 = getelementptr inbounds nuw %"class.std::unique_ptr.1612", ptr %5, i32 0, i32 0
  %7 = load ptr, ptr %4, align 8, !tbaa !3277
  %8 = getelementptr inbounds nuw %"class.std::unique_ptr.1612", ptr %7, i32 0, i32 0
  %9 = call noundef nonnull align 8 dereferenceable(8) ptr @_ZNSt15__uniq_ptr_dataIN3gmx8Mdrunner21BuilderImplementationESt14default_deleteIS2_ELb1ELb1EEaSEOS5_(ptr noundef nonnull align 8 dereferenceable(8) %6, ptr noundef nonnull align 8 dereferenceable(8) %8) #5
  ret ptr %5
}

; Function Attrs: mustprogress nounwind uwtable
define noundef nonnull align 8 dereferenceable(8) ptr @_ZN3gmx15MdrunnerBuilderaSEOS0_(ptr noundef nonnull align 8 dereferenceable(8) %0, ptr noundef nonnull align 8 dereferenceable(8) %1) #2 align 2 {
  %3 = alloca ptr, align 8
  %4 = alloca ptr, align 8
  store ptr %0, ptr %3, align 8, !tbaa !3273
  store ptr %1, ptr %4, align 8, !tbaa !3273
  %5 = load ptr, ptr %3, align 8
  %6 = getelementptr inbounds nuw %"class.gmx::MdrunnerBuilder", ptr %5, i32 0, i32 0
  %7 = load ptr, ptr %4, align 8, !tbaa !3273
  %8 = getelementptr inbounds nuw %"class.gmx::MdrunnerBuilder", ptr %7, i32 0, i32 0
  %9 = call noundef nonnull align 8 dereferenceable(8) ptr @_ZNSt10unique_ptrIN3gmx8Mdrunner21BuilderImplementationESt14default_deleteIS2_EEaSEOS5_(ptr noundef nonnull align 8 dereferenceable(8) %6, ptr noundef nonnull align 8 dereferenceable(8) %8) #5
  ret ptr %5
}