; Function Attrs: mustprogress nounwind uwtable
define noundef nonnull align 8 dereferenceable(8) ptr @_ZN3gmx15MdrunnerBuilderaSEOS0_(ptr noundef nonnull returned align 8 dereferenceable(8) %0, ptr noundef nonnull align 8 captures(none) dereferenceable(8) %1) local_unnamed_addr #11 align 2 {
  %3 = load ptr, ptr %1, align 8, !tbaa !1246
  store ptr null, ptr %1, align 8, !tbaa !1246
  %4 = load ptr, ptr %0, align 8, !tbaa !1246
  store ptr %3, ptr %0, align 8, !tbaa !1246
  %.not.i.i.i.i = icmp eq ptr %4, null
  br i1 %.not.i.i.i.i, label %_ZNSt10unique_ptrIN3gmx8Mdrunner21BuilderImplementationESt14default_deleteIS2_EEaSEOS5_.exit, label %_ZNKSt14default_deleteIN3gmx8Mdrunner21BuilderImplementationEEclEPS2_.exit.i.i.i.i

_ZNKSt14default_deleteIN3gmx8Mdrunner21BuilderImplementationEEclEPS2_.exit.i.i.i.i: ; preds = %2
  tail call void @_ZN3gmx8Mdrunner21BuilderImplementationD1Ev(ptr noundef nonnull align 8 dereferenceable(376) %4) #34
  tail call void @_ZdlPvm(ptr noundef nonnull %4, i64 noundef 376) #33
  br label %_ZNSt10unique_ptrIN3gmx8Mdrunner21BuilderImplementationESt14default_deleteIS2_EEaSEOS5_.exit

_ZNSt10unique_ptrIN3gmx8Mdrunner21BuilderImplementationESt14default_deleteIS2_EEaSEOS5_.exit: ; preds = %2, %_ZNKSt14default_deleteIN3gmx8Mdrunner21BuilderImplementationEEclEPS2_.exit.i.i.i.i
  ret ptr %0
}